target datalayout = "e-m:e-p270:32:32-p271:32:32-p272:64:64-i64:64-i128:128-f80:128-n8:16:32:64-S128"
target triple = "x86_64-pc-linux-gnu"

%"class.cv::utils::trace::details::Region" = type <{ ptr, i32, [4 x i8] }>
%"class.cv::Mat_" = type { %"class.cv::Mat" }
%"class.cv::Mat" = type { i32, i32, i32, i32, ptr, ptr, ptr, ptr, ptr, ptr, %"struct.cv::MatSize", %"struct.cv::MatStep" }
%"struct.cv::MatSize" = type { ptr }
%"struct.cv::MatStep" = type { ptr, [2 x i64] }
%"struct.cv::VariationalRefinementImpl::RedBlackBuffer" = type { %"class.cv::Mat_", %"class.cv::Mat_", i32, i32, i32, i32 }

; Function Attrs: inlinehint mustprogress uwtable
define linkonce_odr hidden void @_ZN2cv4Mat_IfE7releaseEv(ptr noundef nonnull align 8 dereferenceable(96) %0) #1 comdat align 2 {
  %2 = alloca ptr, align 8
  store ptr %0, ptr %2, align 8, !tbaa !36
  %3 = load ptr, ptr %2, align 8
  call void @_ZN2cv3Mat7releaseEv(ptr noundef nonnull align 8 dereferenceable(96) %3)
  %4 = getelementptr inbounds nuw %"class.cv::Mat", ptr %3, i32 0, i32 0
  %5 = load i32, ptr %4, align 8, !tbaa !38
  %6 = and i32 %5, -4096
  %7 = add nsw i32 %6, 5
  %8 = getelementptr inbounds nuw %"class.cv::Mat", ptr %3, i32 0, i32 0
  store i32 %7, ptr %8, align 8, !tbaa !38
  ret void
}

; Function Attrs: mustprogress uwtable
define hidden void @_ZN2cv25VariationalRefinementImpl14RedBlackBuffer7releaseEv(ptr noundef nonnull align 8 dereferenceable(208) %0) #0 align 2 personality ptr @__gxx_personality_v0 {
  %2 = alloca ptr, align 8
  %3 = alloca %"class.cv::utils::trace::details::Region", align 8
  %4 = alloca ptr, align 8
  %5 = alloca i32, align 4
  store ptr %0, ptr %2, align 8, !tbaa !44
  %6 = load ptr, ptr %2, align 8
  call void @llvm.lifetime.start.p0(i64 16, ptr %3) #18
  call void @_ZN2cv5utils5trace7details6RegionC1ERKNS3_21LocationStaticStorageE(ptr noundef nonnull align 8 dereferenceable(12) %3, ptr noundef nonnull align 8 dereferenceable(32) @_ZZN2cv25VariationalRefinementImpl14RedBlackBuffer7releaseEvE25__cv_trace_location_fn414)
  %7 = getelementptr inbounds nuw %"struct.cv::VariationalRefinementImpl::RedBlackBuffer", ptr %6, i32 0, i32 0
  invoke void @_ZN2cv4Mat_IfE7releaseEv(ptr noundef nonnull align 8 dereferenceable(96) %7)
          to label %8 unwind label %15

8:                                                ; preds = %1
  %9 = getelementptr inbounds nuw %"struct.cv::VariationalRefinementImpl::RedBlackBuffer", ptr %6, i32 0, i32 1
  invoke void @_ZN2cv4Mat_IfE7releaseEv(ptr noundef nonnull align 8 dereferenceable(96) %9)
          to label %10 unwind label %15

10:                                               ; preds = %8
  %11 = getelementptr inbounds nuw %"struct.cv::VariationalRefinementImpl::RedBlackBuffer", ptr %6, i32 0, i32 5
  store i32 0, ptr %11, align 4, !tbaa !68
  %12 = getelementptr inbounds nuw %"struct.cv::VariationalRefinementImpl::RedBlackBuffer", ptr %6, i32 0, i32 4
  store i32 0, ptr %12, align 8, !tbaa !66
  %13 = getelementptr inbounds nuw %"struct.cv::VariationalRefinementImpl::RedBlackBuffer", ptr %6, i32 0, i32 3
  store i32 0, ptr %13, align 4, !tbaa !67
  %14 = getelementptr inbounds nuw %"struct.cv::VariationalRefinementImpl::RedBlackBuffer", ptr %6, i32 0, i32 2
  store i32 0, ptr %14, align 8, !tbaa !65
  call void @_ZN2cv5utils5trace7details6RegionD2Ev(ptr noundef nonnull align 8 dereferenceable(12) %3) #18
  call void @llvm.lifetime.end.p0(i64 16, ptr %3) #18
  ret void

15:                                               ; preds = %8, %1
  %16 = landingpad { ptr, i32 }
          cleanup
  %17 = extractvalue { ptr, i32 } %16, 0
  store ptr %17, ptr %4, align 8
  %18 = extractvalue { ptr, i32 } %16, 1
  store i32 %18, ptr %5, align 4
  call void @_ZN2cv5utils5trace7details6RegionD2Ev(ptr noundef nonnull align 8 dereferenceable(12) %3) #18
  call void @llvm.lifetime.end.p0(i64 16, ptr %3) #18
  br label %19

19:                                               ; preds = %15
  %20 = load ptr, ptr %4, align 8
  %21 = load i32, ptr %5, align 4
  %22 = insertvalue { ptr, i32 } poison, ptr %20, 0
  %23 = insertvalue { ptr, i32 } %22, i32 %21, 1
  resume { ptr, i32 } %23
}