; Function Attrs: mustprogress uwtable
define hidden void @_ZN2cv25VariationalRefinementImpl14RedBlackBuffer7releaseEv(ptr noundef nonnull align 8 dereferenceable(208) %0) local_unnamed_addr #0 align 2 personality ptr @__gxx_personality_v0 {
  %2 = alloca %"class.cv::utils::trace::details::Region", align 8
  call void @llvm.lifetime.start.p0(i64 16, ptr nonnull %2) #18
  call void @_ZN2cv5utils5trace7details6RegionC1ERKNS3_21LocationStaticStorageE(ptr noundef nonnull align 8 dereferenceable(12) %2, ptr noundef nonnull align 8 dereferenceable(32) @_ZZN2cv25VariationalRefinementImpl14RedBlackBuffer7releaseEvE25__cv_trace_location_fn414)
  invoke void @_ZN2cv3Mat7releaseEv(ptr noundef nonnull align 8 dereferenceable(96) %0)
          to label %3 unwind label %19

3:                                                ; preds = %1
  %4 = load i32, ptr %0, align 8, !tbaa !6
  %5 = and i32 %4, -4096
  %6 = or disjoint i32 %5, 5
  store i32 %6, ptr %0, align 8, !tbaa !6
  %7 = getelementptr inbounds nuw i8, ptr %0, i64 96
  invoke void @_ZN2cv3Mat7releaseEv(ptr noundef nonnull align 8 dereferenceable(96) %7)
          to label %8 unwind label %19

8:                                                ; preds = %3
  %9 = load i32, ptr %7, align 8, !tbaa !6
  %10 = and i32 %9, -4096
  %11 = or disjoint i32 %10, 5
  store i32 %11, ptr %7, align 8, !tbaa !6
  %12 = getelementptr inbounds nuw i8, ptr %0, i64 192
  %13 = getelementptr inbounds nuw i8, ptr %2, i64 8
  call void @llvm.memset.p0.i64(ptr noundef nonnull align 8 dereferenceable(16) %12, i8 0, i64 16, i1 false)
  %14 = load i32, ptr %13, align 8, !tbaa !33
  %.not.i = icmp eq i32 %14, 0
  br i1 %.not.i, label %_ZN2cv5utils5trace7details6RegionD2Ev.exit, label %15

15:                                               ; preds = %8
  invoke void @_ZN2cv5utils5trace7details6Region7destroyEv(ptr noundef nonnull align 8 dereferenceable(12) %2)
          to label %_ZN2cv5utils5trace7details6RegionD2Ev.exit unwind label %16

16:                                               ; preds = %15
  %17 = landingpad { ptr, i32 }
          catch ptr null
  %18 = extractvalue { ptr, i32 } %17, 0
  call void @__clang_call_terminate(ptr %18) #19
  unreachable

_ZN2cv5utils5trace7details6RegionD2Ev.exit:       ; preds = %8, %15
  call void @llvm.lifetime.end.p0(i64 16, ptr nonnull %2) #18
  ret void

19:                                               ; preds = %3, %1
  %20 = landingpad { ptr, i32 }
          cleanup
  call void @_ZN2cv5utils5trace7details6RegionD2Ev(ptr noundef nonnull align 8 dereferenceable(12) %2) #18
  call void @llvm.lifetime.end.p0(i64 16, ptr nonnull %2) #18
  resume { ptr, i32 } %20
}